; Function Attrs: nounwind uwtable
define range(i32 -1, 1) i32 @H5HF__sect_single_free(ptr noundef %0) #0 {
  %2 = load i8, ptr @H5HF_init_g, align 1, !tbaa !3, !range !7, !noundef !8
  %3 = trunc nuw i8 %2 to i1
  %4 = load i8, ptr @H5_libterm_g, align 1, !range !7
  %5 = trunc nuw i8 %4 to i1
  %6 = xor i1 %5, true
  %7 = select i1 %3, i1 true, i1 %6
  br i1 %7, label %8, label %26, !prof !9

8:                                                ; preds = %1
  %9 = getelementptr inbounds nuw i8, ptr %0, i64 20
  %10 = load i32, ptr %9, align 4, !tbaa !25
  %11 = icmp eq i32 %10, 0
  br i1 %11, label %12, label %H5HF__sect_node_free.exit

12:                                               ; preds = %8
  %13 = getelementptr inbounds nuw i8, ptr %0, i64 24
  %14 = load ptr, ptr %13, align 8, !tbaa !26
  %.not.i = icmp eq ptr %14, null
  br i1 %.not.i, label %H5HF__sect_node_free.exit, label %15

15:                                               ; preds = %12
  %16 = tail call i32 @H5HF__iblock_decr(ptr noundef nonnull %14) #13
  %17 = icmp slt i32 %16, 0
  br i1 %17, label %19, label %H5HF__sect_node_free.exit

H5HF__sect_node_free.exit:                        ; preds = %8, %12, %15
  %18 = tail call ptr @H5FL_reg_free(ptr noundef nonnull @H5_H5HF_free_section_t_reg_free_list, ptr noundef nonnull %0) #13
  br label %26

19:                                               ; preds = %15
  %20 = load i64, ptr @H5E_HEAP_g, align 8, !tbaa !18
  %21 = load i64, ptr @H5E_CANTDEC_g, align 8, !tbaa !18
  %22 = tail call i32 (ptr, ptr, i32, i64, i64, ptr, ...) @H5E_printf_stack(ptr noundef nonnull @.str, ptr noundef nonnull @__func__.H5HF__sect_node_free, i32 noundef 413, i64 noundef %20, i64 noundef %21, ptr noundef nonnull @.str.20) #13
  %23 = load i64, ptr @H5E_HEAP_g, align 8, !tbaa !18
  %24 = load i64, ptr @H5E_CANTRELEASE_g, align 8, !tbaa !18
  %25 = tail call i32 (ptr, ptr, i32, i64, i64, ptr, ...) @H5E_printf_stack(ptr noundef nonnull @.str, ptr noundef nonnull @__func__.H5HF__sect_single_free, i32 noundef 1057, i64 noundef %23, i64 noundef %24, ptr noundef nonnull @.str.6) #13
  br label %26

26:                                               ; preds = %H5HF__sect_node_free.exit, %19, %1
  %.0 = phi i32 [ -1, %19 ], [ 0, %H5HF__sect_node_free.exit ], [ 0, %1 ]
  ret i32 %.0
}